target datalayout = "e-m:e-p270:32:32-p271:32:32-p272:64:64-i64:64-i128:128-f80:128-n8:16:32:64-S128"
target triple = "x86_64-pc-linux-gnu"

%struct.ReverseTopOptions = type { i8, i8, i8 }
%"class.gmx::ArrayRef" = type { %"struct.gmx::ArrayRefIter", %"struct.gmx::ArrayRefIter" }
%"struct.gmx::ArrayRefIter" = type { ptr }
%struct.MolblockIndices = type { i32, i32, i32, i32 }
%"class.std::vector" = type { %"struct.std::_Vector_base" }
%"struct.std::_Vector_base" = type { %"struct.std::_Vector_base<int, std::allocator<int>>::_Vector_impl" }
%"struct.std::_Vector_base<int, std::allocator<int>>::_Vector_impl" = type { %"struct.std::_Vector_base<int, std::allocator<int>>::_Vector_impl_data" }
%"struct.std::_Vector_base<int, std::allocator<int>>::_Vector_impl_data" = type { ptr, ptr, ptr }
%struct.reverse_ilist_t = type <{ %"class.std::vector", %"class.std::vector", i32, [4 x i8] }>
%"class.std::unique_ptr" = type { %"struct.std::__uniq_ptr_data" }
%"struct.std::__uniq_ptr_data" = type { %"class.std::__uniq_ptr_impl" }
%"class.std::__uniq_ptr_impl" = type { %"class.std::tuple" }
%"class.std::tuple" = type { %"struct.std::_Tuple_impl" }
%"struct.std::_Tuple_impl" = type { %"struct.std::_Head_base.7" }
%"struct.std::_Head_base.7" = type { ptr }
%class.gmx_reverse_top_t = type { %"class.std::unique_ptr" }
%"struct.gmx_reverse_top_t::Impl" = type { %struct.ReverseTopOptions, i8, i8, %"class.std::vector.52", i32, i8, %"class.std::vector.57", i8, [7 x i8], %struct.reverse_ilist_t, %"class.std::vector.62" }
%"class.std::vector.52" = type { %"struct.std::_Vector_base.53" }
%"struct.std::_Vector_base.53" = type { %"struct.std::_Vector_base<reverse_ilist_t, std::allocator<reverse_ilist_t>>::_Vector_impl" }
%"struct.std::_Vector_base<reverse_ilist_t, std::allocator<reverse_ilist_t>>::_Vector_impl" = type { %"struct.std::_Vector_base<reverse_ilist_t, std::allocator<reverse_ilist_t>>::_Vector_impl_data" }
%"struct.std::_Vector_base<reverse_ilist_t, std::allocator<reverse_ilist_t>>::_Vector_impl_data" = type { ptr, ptr, ptr }
%"class.std::vector.57" = type { %"struct.std::_Vector_base.58" }
%"struct.std::_Vector_base.58" = type { %"struct.std::_Vector_base<MolblockIndices, std::allocator<MolblockIndices>>::_Vector_impl" }
%"struct.std::_Vector_base<MolblockIndices, std::allocator<MolblockIndices>>::_Vector_impl" = type { %"struct.std::_Vector_base<MolblockIndices, std::allocator<MolblockIndices>>::_Vector_impl_data" }
%"struct.std::_Vector_base<MolblockIndices, std::allocator<MolblockIndices>>::_Vector_impl_data" = type { ptr, ptr, ptr }
%"class.std::vector.62" = type { %"struct.std::_Vector_base.63" }
%"struct.std::_Vector_base.63" = type { %"struct.std::_Vector_base<thread_work_t, std::allocator<thread_work_t>>::_Vector_impl" }
%"struct.std::_Vector_base<thread_work_t, std::allocator<thread_work_t>>::_Vector_impl" = type { %"struct.std::_Vector_base<thread_work_t, std::allocator<thread_work_t>>::_Vector_impl_data" }
%"struct.std::_Vector_base<thread_work_t, std::allocator<thread_work_t>>::_Vector_impl_data" = type { ptr, ptr, ptr }

; Function Attrs: mustprogress nounwind uwtable
define linkonce_odr noundef nonnull align 8 dereferenceable(8) ptr @_ZNSt10_Head_baseILm0EPN17gmx_reverse_top_t4ImplELb0EE7_M_headERKS3_(ptr noundef nonnull align 8 dereferenceable(8) %0) #3 comdat align 2 {
  %2 = alloca ptr, align 8
  store ptr %0, ptr %2, align 8, !tbaa !149
  %3 = load ptr, ptr %2, align 8, !tbaa !149
  %4 = getelementptr inbounds nuw %"struct.std::_Head_base.7", ptr %3, i32 0, i32 0
  ret ptr %4
}

; Function Attrs: mustprogress nounwind uwtable
define linkonce_odr noundef nonnull align 8 dereferenceable(8) ptr @_ZNSt11_Tuple_implILm0EJPN17gmx_reverse_top_t4ImplESt14default_deleteIS1_EEE7_M_headERKS5_(ptr noundef nonnull align 8 dereferenceable(8) %0) #3 comdat align 2 {
  %2 = alloca ptr, align 8
  store ptr %0, ptr %2, align 8, !tbaa !145
  %3 = load ptr, ptr %2, align 8, !tbaa !145
  %4 = call noundef nonnull align 8 dereferenceable(8) ptr @_ZNSt10_Head_baseILm0EPN17gmx_reverse_top_t4ImplELb0EE7_M_headERKS3_(ptr noundef nonnull align 8 dereferenceable(8) %3) #14
  ret ptr %4
}

; Function Attrs: mustprogress nounwind uwtable
define linkonce_odr noundef nonnull align 8 dereferenceable(8) ptr @_ZSt12__get_helperILm0EPN17gmx_reverse_top_t4ImplEJSt14default_deleteIS1_EEERKT0_RKSt11_Tuple_implIXT_EJS5_DpT1_EE(ptr noundef nonnull align 8 dereferenceable(8) %0) #3 comdat {
  %2 = alloca ptr, align 8
  store ptr %0, ptr %2, align 8, !tbaa !145
  %3 = load ptr, ptr %2, align 8, !tbaa !145
  %4 = call noundef nonnull align 8 dereferenceable(8) ptr @_ZNSt11_Tuple_implILm0EJPN17gmx_reverse_top_t4ImplESt14default_deleteIS1_EEE7_M_headERKS5_(ptr noundef nonnull align 8 dereferenceable(8) %3) #14
  ret ptr %4
}

; Function Attrs: mustprogress nounwind uwtable
define linkonce_odr noundef nonnull align 8 dereferenceable(8) ptr @_ZSt3getILm0EJPN17gmx_reverse_top_t4ImplESt14default_deleteIS1_EEERKNSt13tuple_elementIXT_ESt5tupleIJDpT0_EEE4typeERKS9_(ptr noundef nonnull align 8 dereferenceable(8) %0) #3 comdat {
  %2 = alloca ptr, align 8
  store ptr %0, ptr %2, align 8, !tbaa !143
  %3 = load ptr, ptr %2, align 8, !tbaa !143
  %4 = call noundef nonnull align 8 dereferenceable(8) ptr @_ZSt12__get_helperILm0EPN17gmx_reverse_top_t4ImplEJSt14default_deleteIS1_EEERKT0_RKSt11_Tuple_implIXT_EJS5_DpT1_EE(ptr noundef nonnull align 8 dereferenceable(8) %3) #14
  ret ptr %4
}

; Function Attrs: mustprogress nounwind uwtable
define linkonce_odr noundef ptr @_ZNKSt6vectorI15MolblockIndicesSaIS0_EE11_M_data_ptrIS0_EEPT_S5_(ptr noundef nonnull align 8 dereferenceable(24) %0, ptr noundef %1) #3 comdat align 2 {
  %3 = alloca ptr, align 8
  %4 = alloca ptr, align 8
  store ptr %0, ptr %3, align 8, !tbaa !165
  store ptr %1, ptr %4, align 8, !tbaa !28
  %5 = load ptr, ptr %4, align 8, !tbaa !28
  ret ptr %5
}

; Function Attrs: mustprogress nounwind uwtable
define linkonce_odr noundef ptr @_ZNKSt15__uniq_ptr_implIN17gmx_reverse_top_t4ImplESt14default_deleteIS1_EE6_M_ptrEv(ptr noundef nonnull align 8 dereferenceable(8) %0) #3 comdat align 2 {
  %2 = alloca ptr, align 8
  store ptr %0, ptr %2, align 8, !tbaa !141
  %3 = load ptr, ptr %2, align 8
  %4 = getelementptr inbounds nuw %"class.std::__uniq_ptr_impl", ptr %3, i32 0, i32 0
  %5 = call noundef nonnull align 8 dereferenceable(8) ptr @_ZSt3getILm0EJPN17gmx_reverse_top_t4ImplESt14default_deleteIS1_EEERKNSt13tuple_elementIXT_ESt5tupleIJDpT0_EEE4typeERKS9_(ptr noundef nonnull align 8 dereferenceable(8) %4) #14
  %6 = load ptr, ptr %5, align 8, !tbaa !137
  ret ptr %6
}

; Function Attrs: mustprogress nounwind uwtable
define linkonce_odr noundef i64 @_ZNKSt6vectorI15MolblockIndicesSaIS0_EE4sizeEv(ptr noundef nonnull align 8 dereferenceable(24) %0) #3 comdat align 2 {
  %2 = alloca ptr, align 8
  store ptr %0, ptr %2, align 8, !tbaa !165
  %3 = load ptr, ptr %2, align 8
  %4 = getelementptr inbounds nuw %"struct.std::_Vector_base.58", ptr %3, i32 0, i32 0
  %5 = getelementptr inbounds nuw %"struct.std::_Vector_base<MolblockIndices, std::allocator<MolblockIndices>>::_Vector_impl_data", ptr %4, i32 0, i32 1
  %6 = load ptr, ptr %5, align 8, !tbaa !169
  %7 = getelementptr inbounds nuw %"struct.std::_Vector_base.58", ptr %3, i32 0, i32 0
  %8 = getelementptr inbounds nuw %"struct.std::_Vector_base<MolblockIndices, std::allocator<MolblockIndices>>::_Vector_impl_data", ptr %7, i32 0, i32 0
  %9 = load ptr, ptr %8, align 8, !tbaa !167
  %10 = ptrtoint ptr %6 to i64
  %11 = ptrtoint ptr %9 to i64
  %12 = sub i64 %10, %11
  %13 = sdiv exact i64 %12, 16
  ret i64 %13
}

; Function Attrs: mustprogress nounwind uwtable
define linkonce_odr void @_ZN3gmx12ArrayRefIterIK15MolblockIndicesEC2EPS2_(ptr noundef nonnull align 8 dereferenceable(8) %0, ptr noundef %1) unnamed_addr #3 comdat align 2 {
  %3 = alloca ptr, align 8
  %4 = alloca ptr, align 8
  store ptr %0, ptr %3, align 8, !tbaa !41
  store ptr %1, ptr %4, align 8, !tbaa !28
  %5 = load ptr, ptr %3, align 8
  %6 = getelementptr inbounds nuw %"struct.gmx::ArrayRefIter", ptr %5, i32 0, i32 0
  %7 = load ptr, ptr %4, align 8, !tbaa !28
  store ptr %7, ptr %6, align 8, !tbaa !43
  ret void
}

; Function Attrs: mustprogress nounwind uwtable
define linkonce_odr noundef ptr @_ZNSt6vectorI15MolblockIndicesSaIS0_EE4dataEv(ptr noundef nonnull align 8 dereferenceable(24) %0) #3 comdat align 2 {
  %2 = alloca ptr, align 8
  store ptr %0, ptr %2, align 8, !tbaa !165
  %3 = load ptr, ptr %2, align 8
  %4 = getelementptr inbounds nuw %"struct.std::_Vector_base.58", ptr %3, i32 0, i32 0
  %5 = getelementptr inbounds nuw %"struct.std::_Vector_base<MolblockIndices, std::allocator<MolblockIndices>>::_Vector_impl_data", ptr %4, i32 0, i32 0
  %6 = load ptr, ptr %5, align 8, !tbaa !167
  %7 = call noundef ptr @_ZNKSt6vectorI15MolblockIndicesSaIS0_EE11_M_data_ptrIS0_EEPT_S5_(ptr noundef nonnull align 8 dereferenceable(24) %3, ptr noundef %6) #14
  ret ptr %7
}

; Function Attrs: mustprogress nounwind uwtable
define linkonce_odr noundef ptr @_ZNKSt10unique_ptrIN17gmx_reverse_top_t4ImplESt14default_deleteIS1_EE3getEv(ptr noundef nonnull align 8 dereferenceable(8) %0) #3 comdat align 2 {
  %2 = alloca ptr, align 8
  store ptr %0, ptr %2, align 8, !tbaa !135
  %3 = load ptr, ptr %2, align 8
  %4 = getelementptr inbounds nuw %"class.std::unique_ptr", ptr %3, i32 0, i32 0
  %5 = call noundef ptr @_ZNKSt15__uniq_ptr_implIN17gmx_reverse_top_t4ImplESt14default_deleteIS1_EE6_M_ptrEv(ptr noundef nonnull align 8 dereferenceable(8) %4) #14
  ret ptr %5
}

; Function Attrs: mustprogress nounwind uwtable
define linkonce_odr void @_ZN3gmx8ArrayRefIK15MolblockIndicesEC2IRSt6vectorIS1_SaIS1_EEvEEOT_(ptr noundef nonnull align 8 dereferenceable(16) %0, ptr noundef nonnull align 8 dereferenceable(24) %1) unnamed_addr #3 comdat align 2 {
  %3 = alloca ptr, align 8
  %4 = alloca ptr, align 8
  store ptr %0, ptr %3, align 8, !tbaa !37
  store ptr %1, ptr %4, align 8, !tbaa !165
  %5 = load ptr, ptr %3, align 8
  %6 = getelementptr inbounds nuw %"class.gmx::ArrayRef", ptr %5, i32 0, i32 0
  %7 = load ptr, ptr %4, align 8, !tbaa !165
  %8 = call noundef ptr @_ZNSt6vectorI15MolblockIndicesSaIS0_EE4dataEv(ptr noundef nonnull align 8 dereferenceable(24) %7) #14
  call void @_ZN3gmx12ArrayRefIterIK15MolblockIndicesEC2EPS2_(ptr noundef nonnull align 8 dereferenceable(8) %6, ptr noundef %8) #14
  %9 = getelementptr inbounds nuw %"class.gmx::ArrayRef", ptr %5, i32 0, i32 1
  %10 = load ptr, ptr %4, align 8, !tbaa !165
  %11 = call noundef ptr @_ZNSt6vectorI15MolblockIndicesSaIS0_EE4dataEv(ptr noundef nonnull align 8 dereferenceable(24) %10) #14
  %12 = load ptr, ptr %4, align 8, !tbaa !165
  %13 = call noundef i64 @_ZNKSt6vectorI15MolblockIndicesSaIS0_EE4sizeEv(ptr noundef nonnull align 8 dereferenceable(24) %12) #14
  %14 = getelementptr inbounds nuw %struct.MolblockIndices, ptr %11, i64 %13
  call void @_ZN3gmx12ArrayRefIterIK15MolblockIndicesEC2EPS2_(ptr noundef nonnull align 8 dereferenceable(8) %9, ptr noundef %14) #14
  ret void
}

; Function Attrs: mustprogress nounwind uwtable
define linkonce_odr noundef ptr @_ZNKSt10unique_ptrIN17gmx_reverse_top_t4ImplESt14default_deleteIS1_EEptEv(ptr noundef nonnull align 8 dereferenceable(8) %0) #3 comdat align 2 {
  %2 = alloca ptr, align 8
  store ptr %0, ptr %2, align 8, !tbaa !135
  %3 = load ptr, ptr %2, align 8
  %4 = call noundef ptr @_ZNKSt10unique_ptrIN17gmx_reverse_top_t4ImplESt14default_deleteIS1_EE3getEv(ptr noundef nonnull align 8 dereferenceable(8) %3) #14
  ret ptr %4
}

; Function Attrs: mustprogress uwtable
define { ptr, ptr } @_ZNK17gmx_reverse_top_t15molblockIndicesEv(ptr noundef nonnull align 8 dereferenceable(8) %0) #0 align 2 {
  %2 = alloca %"class.gmx::ArrayRef", align 8
  %3 = alloca ptr, align 8
  store ptr %0, ptr %3, align 8, !tbaa !129
  %4 = load ptr, ptr %3, align 8
  %5 = getelementptr inbounds nuw %class.gmx_reverse_top_t, ptr %4, i32 0, i32 0
  %6 = call noundef ptr @_ZNKSt10unique_ptrIN17gmx_reverse_top_t4ImplESt14default_deleteIS1_EEptEv(ptr noundef nonnull align 8 dereferenceable(8) %5) #14
  %7 = getelementptr inbounds nuw %"struct.gmx_reverse_top_t::Impl", ptr %6, i32 0, i32 6
  call void @_ZN3gmx8ArrayRefIK15MolblockIndicesEC2IRSt6vectorIS1_SaIS1_EEvEEOT_(ptr noundef nonnull align 8 dereferenceable(16) %2, ptr noundef nonnull align 8 dereferenceable(24) %7)
  %8 = load { ptr, ptr }, ptr %2, align 8
  ret { ptr, ptr } %8
}